target datalayout = "e-m:e-p270:32:32-p271:32:32-p272:64:64-i64:64-i128:128-f80:128-n8:16:32:64-S128"
target triple = "x86_64-pc-linux-gnu"

%"struct.boost::urls::detail::url_impl" = type <{ ptr, [8 x i64], [7 x i64], i64, i64, [16 x i8], i16, [2 x i8], i32, i16, i8, [5 x i8] }>
%"class.boost::urls::detail::query_ref" = type <{ ptr, ptr, i64, i64, i64, i8, [7 x i8] }>

; Function Attrs: mustprogress nounwind uwtable
define noundef i64 @_ZNK5boost4urls6detail8url_impl6offsetEi(ptr noundef nonnull align 8 dereferenceable(171) %0, i32 noundef %1) #1 align 2 {
  %3 = alloca ptr, align 8
  %4 = alloca i32, align 4
  store ptr %0, ptr %3, align 8, !tbaa !3
  store i32 %1, ptr %4, align 4, !tbaa !16
  %5 = load ptr, ptr %3, align 8
  %6 = load i32, ptr %4, align 4, !tbaa !16
  %7 = icmp eq i32 %6, -1
  br i1 %7, label %8, label %9

8:                                                ; preds = %2
  br label %15

9:                                                ; preds = %2
  %10 = getelementptr inbounds nuw %"struct.boost::urls::detail::url_impl", ptr %5, i32 0, i32 1
  %11 = load i32, ptr %4, align 4, !tbaa !16
  %12 = sext i32 %11 to i64
  %13 = getelementptr inbounds [8 x i64], ptr %10, i64 0, i64 %12
  %14 = load i64, ptr %13, align 8, !tbaa !8
  br label %15

15:                                               ; preds = %9, %8
  %16 = phi i64 [ 0, %8 ], [ %14, %9 ]
  ret i64 %16
}

; Function Attrs: mustprogress nounwind uwtable
define noundef i64 @_ZNK5boost4urls6detail8url_impl3lenEi(ptr noundef nonnull align 8 dereferenceable(171) %0, i32 noundef %1) #1 align 2 {
  %3 = alloca ptr, align 8
  %4 = alloca i32, align 4
  store ptr %0, ptr %3, align 8, !tbaa !3
  store i32 %1, ptr %4, align 4, !tbaa !16
  %5 = load ptr, ptr %3, align 8
  %6 = load i32, ptr %4, align 4, !tbaa !16
  %7 = icmp eq i32 %6, 7
  br i1 %7, label %8, label %9

8:                                                ; preds = %2
  br label %16

9:                                                ; preds = %2
  %10 = load i32, ptr %4, align 4, !tbaa !16
  %11 = add nsw i32 %10, 1
  %12 = call noundef i64 @_ZNK5boost4urls6detail8url_impl6offsetEi(ptr noundef nonnull align 8 dereferenceable(171) %5, i32 noundef %11) #5
  %13 = load i32, ptr %4, align 4, !tbaa !16
  %14 = call noundef i64 @_ZNK5boost4urls6detail8url_impl6offsetEi(ptr noundef nonnull align 8 dereferenceable(171) %5, i32 noundef %13) #5
  %15 = sub i64 %12, %14
  br label %16

16:                                               ; preds = %9, %8
  %17 = phi i64 [ 0, %8 ], [ %15, %9 ]
  ret i64 %17
}

; Function Attrs: mustprogress nounwind uwtable
define noundef i64 @_ZNK5boost4urls6detail9query_ref4sizeEv(ptr noundef nonnull align 8 dereferenceable(41) %0) #1 align 2 {
  %2 = alloca i64, align 8
  %3 = alloca ptr, align 8
  store ptr %0, ptr %3, align 8, !tbaa !3
  %4 = load ptr, ptr %3, align 8
  %5 = getelementptr inbounds nuw %"class.boost::urls::detail::query_ref", ptr %4, i32 0, i32 0
  %6 = load ptr, ptr %5, align 8, !tbaa !48
  %7 = icmp ne ptr %6, null
  br i1 %7, label %8, label %12

8:                                                ; preds = %1
  %9 = getelementptr inbounds nuw %"class.boost::urls::detail::query_ref", ptr %4, i32 0, i32 0
  %10 = load ptr, ptr %9, align 8, !tbaa !48
  %11 = call noundef i64 @_ZNK5boost4urls6detail8url_impl3lenEi(ptr noundef nonnull align 8 dereferenceable(171) %10, i32 noundef 5) #5
  store i64 %11, ptr %2, align 8
  br label %25

12:                                               ; preds = %1
  %13 = getelementptr inbounds nuw %"class.boost::urls::detail::query_ref", ptr %4, i32 0, i32 2
  %14 = load i64, ptr %13, align 8, !tbaa !52
  %15 = icmp ugt i64 %14, 0
  br i1 %15, label %16, label %20

16:                                               ; preds = %12
  %17 = getelementptr inbounds nuw %"class.boost::urls::detail::query_ref", ptr %4, i32 0, i32 2
  %18 = load i64, ptr %17, align 8, !tbaa !52
  %19 = add i64 %18, 1
  store i64 %19, ptr %2, align 8
  br label %25

20:                                               ; preds = %12
  %21 = getelementptr inbounds nuw %"class.boost::urls::detail::query_ref", ptr %4, i32 0, i32 5
  %22 = load i8, ptr %21, align 8, !tbaa !55, !range !56, !noundef !57
  %23 = trunc i8 %22 to i1
  %24 = zext i1 %23 to i64
  store i64 %24, ptr %2, align 8
  br label %25

25:                                               ; preds = %20, %16, %8
  %26 = load i64, ptr %2, align 8
  ret i64 %26
}