; Function Attrs: mustprogress nofree norecurse nosync nounwind willreturn memory(read, inaccessiblemem: none) uwtable
define noundef i64 @_ZNK5boost4urls6detail9query_ref4sizeEv(ptr nocapture noundef nonnull readonly align 8 dereferenceable(41) %0) local_unnamed_addr #10 align 2 {
  %2 = load ptr, ptr %0, align 8, !tbaa !49
  %.not = icmp eq ptr %2, null
  br i1 %.not, label %9, label %3

3:                                                ; preds = %1
  %4 = getelementptr inbounds i8, ptr %2, i64 56
  %5 = load i64, ptr %4, align 8, !tbaa !13
  %6 = getelementptr inbounds i8, ptr %2, i64 48
  %7 = load i64, ptr %6, align 8, !tbaa !13
  %8 = sub i64 %5, %7
  br label %18

9:                                                ; preds = %1
  %10 = getelementptr inbounds nuw i8, ptr %0, i64 16
  %11 = load i64, ptr %10, align 8, !tbaa !53
  %.not3 = icmp eq i64 %11, 0
  br i1 %.not3, label %14, label %12

12:                                               ; preds = %9
  %13 = add i64 %11, 1
  br label %18

14:                                               ; preds = %9
  %15 = getelementptr inbounds nuw i8, ptr %0, i64 40
  %16 = load i8, ptr %15, align 8, !tbaa !56, !range !66, !noundef !67
  %17 = zext nneg i8 %16 to i64
  br label %18

18:                                               ; preds = %14, %12, %3
  %.0 = phi i64 [ %8, %3 ], [ %13, %12 ], [ %17, %14 ]
  ret i64 %.0
}